; ModuleID = 'source-C-CXX/25/856.c'
source_filename = "source-C-CXX/25/856.c"
target datalayout = "e-m:e-p270:32:32-p271:32:32-p272:64:64-i64:64-f80:128-n8:16:32:64-S128"
target triple = "x86_64-pc-linux-gnu"

@.str = private unnamed_addr constant [3 x i8] c"  \00", align 1

; Function Attrs: nounwind sspstrong uwtable
define dso_local i32 @main() local_unnamed_addr #0 {
  %1 = alloca [1024 x i8], align 16
  %2 = getelementptr inbounds [1024 x i8], [1024 x i8]* %1, i64 0, i64 0
  call void @llvm.lifetime.start.p0i8(i64 1024, i8* nonnull %2) #7
  call void @llvm.memset.p0i8.i64(i8* noundef nonnull align 16 dereferenceable(1024) %2, i8 0, i64 1024, i1 false)
  %3 = call i32 (i8*, ...) bitcast (i32 (...)* @gets to i32 (i8*, ...)*)(i8* nonnull %2) #7
  %4 = call i64 @strlen(i8* noundef nonnull %2) #8
  %5 = add i64 %4, -1
  %6 = getelementptr inbounds [1024 x i8], [1024 x i8]* %1, i64 0, i64 %5
  %7 = load i8, i8* %6, align 1, !tbaa !5
  %8 = icmp eq i8 %7, 32
  br i1 %8, label %9, label %14

9:                                                ; preds = %0, %9
  %10 = phi i8* [ %11, %9 ], [ %6, %0 ]
  %11 = getelementptr inbounds i8, i8* %10, i64 -1
  store i8 0, i8* %10, align 1, !tbaa !5
  %12 = load i8, i8* %11, align 1, !tbaa !5
  %13 = icmp eq i8 %12, 32
  br i1 %13, label %9, label %14, !llvm.loop !8

14:                                               ; preds = %9, %0
  br label %15

15:                                               ; preds = %14, %15
  %16 = phi i8* [ %17, %15 ], [ %2, %14 ]
  %17 = getelementptr inbounds i8, i8* %16, i64 1
  %18 = load i8, i8* %16, align 1, !tbaa !5
  %19 = icmp eq i8 %18, 32
  br i1 %19, label %15, label %20, !llvm.loop !10

20:                                               ; preds = %15
  %21 = call i8* @strcpy(i8* noundef nonnull %2, i8* noundef nonnull %16) #7
  %22 = call i8* @strstr(i8* noundef nonnull %2, i8* noundef nonnull dereferenceable(1) getelementptr inbounds ([3 x i8], [3 x i8]* @.str, i64 0, i64 0)) #8
  %23 = icmp eq i8* %22, null
  br i1 %23, label %30, label %24

24:                                               ; preds = %20, %24
  %25 = phi i8* [ %28, %24 ], [ %22, %20 ]
  %26 = getelementptr inbounds i8, i8* %25, i64 1
  %27 = call i8* @strcpy(i8* noundef nonnull %25, i8* noundef nonnull %26) #7
  %28 = call i8* @strstr(i8* noundef nonnull %2, i8* noundef nonnull dereferenceable(1) getelementptr inbounds ([3 x i8], [3 x i8]* @.str, i64 0, i64 0)) #8
  %29 = icmp eq i8* %28, null
  br i1 %29, label %30, label %24, !llvm.loop !11

30:                                               ; preds = %24, %20
  %31 = call i32 @puts(i8* nonnull %2)
  call void @llvm.lifetime.end.p0i8(i64 1024, i8* nonnull %2) #7
  ret i32 0
}

; Function Attrs: argmemonly mustprogress nofree nosync nounwind willreturn
declare void @llvm.lifetime.start.p0i8(i64 immarg, i8* nocapture) #1

; Function Attrs: argmemonly mustprogress nofree nounwind willreturn writeonly
declare void @llvm.memset.p0i8.i64(i8* nocapture writeonly, i8, i64, i1 immarg) #2

declare i32 @gets(...) local_unnamed_addr #3

; Function Attrs: argmemonly mustprogress nofree nounwind readonly willreturn
declare i64 @strlen(i8* nocapture) local_unnamed_addr #4

; Function Attrs: argmemonly mustprogress nofree nounwind willreturn
declare i8* @strcpy(i8* noalias returned writeonly, i8* noalias nocapture readonly) local_unnamed_addr #5

; Function Attrs: argmemonly mustprogress nofree nounwind readonly willreturn
declare i8* @strstr(i8*, i8* nocapture) local_unnamed_addr #4

; Function Attrs: argmemonly mustprogress nofree nosync nounwind willreturn
declare void @llvm.lifetime.end.p0i8(i64 immarg, i8* nocapture) #1

; Function Attrs: nofree nounwind
declare noundef i32 @puts(i8* nocapture noundef readonly) local_unnamed_addr #6


!llvm.module.flags = !{!0, !1, !2, !3}
!llvm.ident = !{!4}

!0 = !{i32 1, !"wchar_size", i32 4}
!1 = !{i32 7, !"PIC Level", i32 2}
!2 = !{i32 7, !"PIE Level", i32 2}
!3 = !{i32 7, !"uwtable", i32 1}
!4 = !{!"clang version 13.0.0"}
!5 = !{!6, !6, i64 0}
!6 = !{!"omnipotent char", !7, i64 0}
!7 = !{!"Simple C/C++ TBAA"}
!8 = distinct !{!8, !9}
!9 = !{!"llvm.loop.mustprogress"}
!10 = distinct !{!10, !9}
!11 = distinct !{!11, !9}
